; Function Attrs: nounwind uwtable
define dso_local i32 @FileSync(i32 noundef %0, i32 noundef %1) local_unnamed_addr #0 {
  %3 = tail call fastcc i32 @FileAccess(i32 noundef %0)
  %4 = icmp slt i32 %3, 0
  br i1 %4, label %20, label %5

5:                                                ; preds = %2
  %6 = load ptr, ptr @my_wait_event_info, align 8
  store volatile i32 %1, ptr %6, align 4
  %7 = load ptr, ptr @VfdCache, align 8
  %8 = sext i32 %0 to i64
  %9 = getelementptr inbounds %struct.vfd, ptr %7, i64 %8
  %10 = load i32, ptr %9, align 8
  %11 = load i8, ptr @enableFsync, align 1, !range !4, !noundef !5
  %12 = trunc nuw i8 %11 to i1
  br i1 %12, label %.preheader.i.i, label %pg_fsync.exit

.preheader.i.i:                                   ; preds = %5, %15
  %13 = tail call i32 @fsync(i32 noundef %10) #25
  %14 = icmp eq i32 %13, -1
  br i1 %14, label %15, label %pg_fsync.exit

15:                                               ; preds = %.preheader.i.i
  %16 = tail call ptr @__errno_location() #26
  %17 = load i32, ptr %16, align 4
  %18 = icmp eq i32 %17, 4
  br i1 %18, label %.preheader.i.i, label %pg_fsync.exit

pg_fsync.exit:                                    ; preds = %.preheader.i.i, %15, %5
  %.0.i.i = phi i32 [ 0, %5 ], [ %13, %.preheader.i.i ], [ -1, %15 ]
  %19 = load ptr, ptr @my_wait_event_info, align 8
  store volatile i32 0, ptr %19, align 4
  br label %20

20:                                               ; preds = %2, %pg_fsync.exit
  %.0 = phi i32 [ %.0.i.i, %pg_fsync.exit ], [ -1, %2 ]
  ret i32 %.0
}